
bin/Release/motorControl.elf:     file format elf32-avr

Sections:
Idx Name          Size      VMA       LMA       File off  Algn
  0 .text         0000037c  00000000  00000000  000000d4  2**1
                  CONTENTS, ALLOC, LOAD, READONLY, CODE
  1 .data         00000008  00800060  0000037c  00000450  2**0
                  CONTENTS, ALLOC, LOAD, DATA
  2 .bss          00000008  00800068  00800068  0000047c  2**0
                  ALLOC
  3 .stab         00000204  00000000  00000000  0000047c  2**2
                  CONTENTS, READONLY, DEBUGGING
  4 .stabstr      00000095  00000000  00000000  00000680  2**0
                  CONTENTS, READONLY, DEBUGGING
  5 .comment      00000040  00000000  00000000  00000715  2**0
                  CONTENTS, READONLY
  6 .note.gnu.avr.deviceinfo 00000040  00000000  00000000  00000758  2**2
                  CONTENTS, READONLY
  7 .note.gnu.build-id 00000024  00000384  00000384  00000458  2**2
                  CONTENTS, ALLOC, LOAD, READONLY, DATA
  8 .debug_info   0000040e  00000000  00000000  00000798  2**0
                  CONTENTS, READONLY, DEBUGGING
  9 .debug_abbrev 000003d7  00000000  00000000  00000ba6  2**0
                  CONTENTS, READONLY, DEBUGGING
 10 .debug_line   0000001d  00000000  00000000  00000f7d  2**0
                  CONTENTS, READONLY, DEBUGGING
 11 .debug_str    00000163  00000000  00000000  00000f9a  2**0
                  CONTENTS, READONLY, DEBUGGING

Disassembly of section .text:

00000000 <__vectors>:
   0:	12 c0       	rjmp	.+36     	; 0x26 <__ctors_end>
   2:	67 c1       	rjmp	.+718    	; 0x2d2 <__vector_1>
   4:	29 c0       	rjmp	.+82     	; 0x58 <__bad_interrupt>
   6:	28 c0       	rjmp	.+80     	; 0x58 <__bad_interrupt>
   8:	27 c0       	rjmp	.+78     	; 0x58 <__bad_interrupt>
   a:	26 c0       	rjmp	.+76     	; 0x58 <__bad_interrupt>
   c:	59 c0       	rjmp	.+178    	; 0xc0 <__vector_6>
   e:	24 c0       	rjmp	.+72     	; 0x58 <__bad_interrupt>
  10:	23 c0       	rjmp	.+70     	; 0x58 <__bad_interrupt>
  12:	22 c0       	rjmp	.+68     	; 0x58 <__bad_interrupt>
  14:	21 c0       	rjmp	.+66     	; 0x58 <__bad_interrupt>
  16:	20 c0       	rjmp	.+64     	; 0x58 <__bad_interrupt>
  18:	1f c0       	rjmp	.+62     	; 0x58 <__bad_interrupt>
  1a:	1e c0       	rjmp	.+60     	; 0x58 <__bad_interrupt>
  1c:	1d c0       	rjmp	.+58     	; 0x58 <__bad_interrupt>
  1e:	1c c0       	rjmp	.+56     	; 0x58 <__bad_interrupt>
  20:	1b c0       	rjmp	.+54     	; 0x58 <__bad_interrupt>
  22:	1a c0       	rjmp	.+52     	; 0x58 <__bad_interrupt>
  24:	19 c0       	rjmp	.+50     	; 0x58 <__bad_interrupt>

00000026 <__ctors_end>:
  26:	11 24       	eor	r1, r1
  28:	1f be       	out	0x3f, r1	; 63
  2a:	cf ed       	ldi	r28, 0xDF	; 223
  2c:	cd bf       	out	0x3d, r28	; 61

0000002e <__do_copy_data>:
  2e:	10 e0       	ldi	r17, 0x00	; 0
  30:	a0 e6       	ldi	r26, 0x60	; 96
  32:	b0 e0       	ldi	r27, 0x00	; 0
  34:	ec e7       	ldi	r30, 0x7C	; 124
  36:	f3 e0       	ldi	r31, 0x03	; 3
  38:	02 c0       	rjmp	.+4      	; 0x3e <__SP_L__+0x1>
  3a:	05 90       	lpm	r0, Z+
  3c:	0d 92       	st	X+, r0
  3e:	a8 36       	cpi	r26, 0x68	; 104
  40:	b1 07       	cpc	r27, r17
  42:	d9 f7       	brne	.-10     	; 0x3a <__do_copy_data+0xc>

00000044 <__do_clear_bss>:
  44:	20 e0       	ldi	r18, 0x00	; 0
  46:	a8 e6       	ldi	r26, 0x68	; 104
  48:	b0 e0       	ldi	r27, 0x00	; 0
  4a:	01 c0       	rjmp	.+2      	; 0x4e <.do_clear_bss_start>

0000004c <.do_clear_bss_loop>:
  4c:	1d 92       	st	X+, r1

0000004e <.do_clear_bss_start>:
  4e:	a0 37       	cpi	r26, 0x70	; 112
  50:	b2 07       	cpc	r27, r18
  52:	e1 f7       	brne	.-8      	; 0x4c <.do_clear_bss_loop>
  54:	62 d1       	rcall	.+708    	; 0x31a <main>
  56:	90 c1       	rjmp	.+800    	; 0x378 <_exit>

00000058 <__bad_interrupt>:
  58:	d3 cf       	rjmp	.-90     	; 0x0 <__vectors>

0000005a <switchLed>:
  5a:	82 b3       	in	r24, 0x12	; 18
  5c:	98 e0       	ldi	r25, 0x08	; 8
  5e:	89 27       	eor	r24, r25
  60:	82 bb       	out	0x12, r24	; 18
  62:	08 95       	ret

00000064 <isLedOn>:
  64:	82 b3       	in	r24, 0x12	; 18
  66:	83 fb       	bst	r24, 3
  68:	88 27       	eor	r24, r24
  6a:	80 f9       	bld	r24, 0
  6c:	08 95       	ret

0000006e <oNLed>:
  6e:	93 9a       	sbi	0x12, 3	; 18
  70:	08 95       	ret

00000072 <oFFLed>:
  72:	93 98       	cbi	0x12, 3	; 18
  74:	08 95       	ret

00000076 <buttonPressed>:
  76:	80 b3       	in	r24, 0x10	; 16
  78:	82 fb       	bst	r24, 2
  7a:	88 27       	eor	r24, r24
  7c:	80 f9       	bld	r24, 0
  7e:	91 e0       	ldi	r25, 0x01	; 1
  80:	89 27       	eor	r24, r25
  82:	08 95       	ret

00000084 <turnLeft>:
  84:	94 9a       	sbi	0x12, 4	; 18
  86:	86 e0       	ldi	r24, 0x06	; 6
  88:	80 93 68 00 	sts	0x0068, r24	; 0x800068 <__data_end>
  8c:	08 95       	ret

0000008e <turnRight>:
  8e:	94 9a       	sbi	0x12, 4	; 18
  90:	95 9a       	sbi	0x12, 5	; 18
  92:	86 e0       	ldi	r24, 0x06	; 6
  94:	80 93 68 00 	sts	0x0068, r24	; 0x800068 <__data_end>
  98:	08 95       	ret

0000009a <stop>:
  9a:	82 b3       	in	r24, 0x12	; 18
  9c:	8f 7c       	andi	r24, 0xCF	; 207
  9e:	82 bb       	out	0x12, r24	; 18
  a0:	08 95       	ret

000000a2 <blink>:
  a2:	88 23       	and	r24, r24
  a4:	59 f0       	breq	.+22     	; 0xbc <blink+0x1a>
  a6:	80 91 6d 00 	lds	r24, 0x006D	; 0x80006d <ledCounter.1530>
  aa:	8f 5f       	subi	r24, 0xFF	; 255
  ac:	80 93 6d 00 	sts	0x006D, r24	; 0x80006d <ledCounter.1530>
  b0:	85 30       	cpi	r24, 0x05	; 5
  b2:	29 f4       	brne	.+10     	; 0xbe <blink+0x1c>
  b4:	d2 df       	rcall	.-92     	; 0x5a <switchLed>
  b6:	10 92 6d 00 	sts	0x006D, r1	; 0x80006d <ledCounter.1530>
  ba:	08 95       	ret
  bc:	ce cf       	rjmp	.-100    	; 0x5a <switchLed>
  be:	08 95       	ret

000000c0 <__vector_6>:
  c0:	1f 92       	push	r1
  c2:	0f 92       	push	r0
  c4:	0f b6       	in	r0, 0x3f	; 63
  c6:	0f 92       	push	r0
  c8:	11 24       	eor	r1, r1
  ca:	2f 93       	push	r18
  cc:	3f 93       	push	r19
  ce:	4f 93       	push	r20
  d0:	5f 93       	push	r21
  d2:	6f 93       	push	r22
  d4:	7f 93       	push	r23
  d6:	8f 93       	push	r24
  d8:	9f 93       	push	r25
  da:	af 93       	push	r26
  dc:	bf 93       	push	r27
  de:	cf 93       	push	r28
  e0:	ef 93       	push	r30
  e2:	ff 93       	push	r31
  e4:	80 91 6e 00 	lds	r24, 0x006E	; 0x80006e <mode>
  e8:	90 91 6f 00 	lds	r25, 0x006F	; 0x80006f <mode+0x1>
  ec:	82 30       	cpi	r24, 0x02	; 2
  ee:	91 05       	cpc	r25, r1
  f0:	09 f4       	brne	.+2      	; 0xf4 <__stack+0x15>
  f2:	a2 c0       	rjmp	.+324    	; 0x238 <__stack+0x159>
  f4:	08 f0       	brcs	.+2      	; 0xf8 <__stack+0x19>
  f6:	40 c0       	rjmp	.+128    	; 0x178 <__stack+0x99>
  f8:	00 97       	sbiw	r24, 0x00	; 0
  fa:	09 f4       	brne	.+2      	; 0xfe <__stack+0x1f>
  fc:	57 c0       	rjmp	.+174    	; 0x1ac <__stack+0xcd>
  fe:	01 97       	sbiw	r24, 0x01	; 1
 100:	09 f4       	brne	.+2      	; 0x104 <__stack+0x25>
 102:	64 c0       	rjmp	.+200    	; 0x1cc <__stack+0xed>
 104:	80 91 68 00 	lds	r24, 0x0068	; 0x800068 <__data_end>
 108:	88 23       	and	r24, r24
 10a:	41 f0       	breq	.+16     	; 0x11c <__stack+0x3d>
 10c:	80 91 68 00 	lds	r24, 0x0068	; 0x800068 <__data_end>
 110:	81 50       	subi	r24, 0x01	; 1
 112:	80 93 68 00 	sts	0x0068, r24	; 0x800068 <__data_end>
 116:	81 11       	cpse	r24, r1
 118:	01 c0       	rjmp	.+2      	; 0x11c <__stack+0x3d>
 11a:	bf df       	rcall	.-130    	; 0x9a <stop>
 11c:	80 91 69 00 	lds	r24, 0x0069	; 0x800069 <counter>
 120:	90 91 6a 00 	lds	r25, 0x006A	; 0x80006a <counter+0x1>
 124:	01 96       	adiw	r24, 0x01	; 1
 126:	90 93 6a 00 	sts	0x006A, r25	; 0x80006a <counter+0x1>
 12a:	80 93 69 00 	sts	0x0069, r24	; 0x800069 <counter>
 12e:	81 15       	cp	r24, r1
 130:	98 40       	sbci	r25, 0x08	; 8
 132:	81 f4       	brne	.+32     	; 0x154 <__stack+0x75>
 134:	19 be       	out	0x39, r1	; 57
 136:	13 be       	out	0x33, r1	; 51
 138:	9c df       	rcall	.-200    	; 0x72 <oFFLed>
 13a:	80 e4       	ldi	r24, 0x40	; 64
 13c:	8b bf       	out	0x3b, r24	; 59
 13e:	85 b7       	in	r24, 0x35	; 53
 140:	80 65       	ori	r24, 0x50	; 80
 142:	85 bf       	out	0x35, r24	; 53
 144:	85 b7       	in	r24, 0x35	; 53
 146:	80 62       	ori	r24, 0x20	; 32
 148:	85 bf       	out	0x35, r24	; 53
 14a:	78 94       	sei
 14c:	88 95       	sleep
 14e:	85 b7       	in	r24, 0x35	; 53
 150:	8f 7d       	andi	r24, 0xDF	; 223
 152:	85 bf       	out	0x35, r24	; 53
 154:	ff 91       	pop	r31
 156:	ef 91       	pop	r30
 158:	cf 91       	pop	r28
 15a:	bf 91       	pop	r27
 15c:	af 91       	pop	r26
 15e:	9f 91       	pop	r25
 160:	8f 91       	pop	r24
 162:	7f 91       	pop	r23
 164:	6f 91       	pop	r22
 166:	5f 91       	pop	r21
 168:	4f 91       	pop	r20
 16a:	3f 91       	pop	r19
 16c:	2f 91       	pop	r18
 16e:	0f 90       	pop	r0
 170:	0f be       	out	0x3f, r0	; 63
 172:	0f 90       	pop	r0
 174:	1f 90       	pop	r1
 176:	18 95       	reti
 178:	83 30       	cpi	r24, 0x03	; 3
 17a:	91 05       	cpc	r25, r1
 17c:	91 f0       	breq	.+36     	; 0x1a2 <__stack+0xc3>
 17e:	05 97       	sbiw	r24, 0x05	; 5
 180:	09 f0       	breq	.+2      	; 0x184 <__stack+0xa5>
 182:	c0 cf       	rjmp	.-128    	; 0x104 <__stack+0x25>
 184:	80 91 6c 00 	lds	r24, 0x006C	; 0x80006c <ledCnt.1538>
 188:	8f 5f       	subi	r24, 0xFF	; 255
 18a:	80 93 6c 00 	sts	0x006C, r24	; 0x80006c <ledCnt.1538>
 18e:	87 30       	cpi	r24, 0x07	; 7
 190:	10 f4       	brcc	.+4      	; 0x196 <__stack+0xb7>
 192:	63 df       	rcall	.-314    	; 0x5a <switchLed>
 194:	b7 cf       	rjmp	.-146    	; 0x104 <__stack+0x25>
 196:	8c 30       	cpi	r24, 0x0C	; 12
 198:	09 f0       	breq	.+2      	; 0x19c <__stack+0xbd>
 19a:	b4 cf       	rjmp	.-152    	; 0x104 <__stack+0x25>
 19c:	10 92 6c 00 	sts	0x006C, r1	; 0x80006c <ledCnt.1538>
 1a0:	b1 cf       	rjmp	.-158    	; 0x104 <__stack+0x25>
 1a2:	60 df       	rcall	.-320    	; 0x64 <isLedOn>
 1a4:	91 e0       	ldi	r25, 0x01	; 1
 1a6:	89 27       	eor	r24, r25
 1a8:	7c df       	rcall	.-264    	; 0xa2 <blink>
 1aa:	ac cf       	rjmp	.-168    	; 0x104 <__stack+0x25>
 1ac:	56 df       	rcall	.-340    	; 0x5a <switchLed>
 1ae:	63 df       	rcall	.-314    	; 0x76 <buttonPressed>
 1b0:	88 23       	and	r24, r24
 1b2:	09 f4       	brne	.+2      	; 0x1b6 <__stack+0xd7>
 1b4:	a7 cf       	rjmp	.-178    	; 0x104 <__stack+0x25>
 1b6:	10 92 6a 00 	sts	0x006A, r1	; 0x80006a <counter+0x1>
 1ba:	10 92 69 00 	sts	0x0069, r1	; 0x800069 <counter>
 1be:	81 e0       	ldi	r24, 0x01	; 1
 1c0:	90 e0       	ldi	r25, 0x00	; 0
 1c2:	90 93 6f 00 	sts	0x006F, r25	; 0x80006f <mode+0x1>
 1c6:	80 93 6e 00 	sts	0x006E, r24	; 0x80006e <mode>
 1ca:	9c cf       	rjmp	.-200    	; 0x104 <__stack+0x25>
 1cc:	46 df       	rcall	.-372    	; 0x5a <switchLed>
 1ce:	53 df       	rcall	.-346    	; 0x76 <buttonPressed>
 1d0:	20 91 69 00 	lds	r18, 0x0069	; 0x800069 <counter>
 1d4:	30 91 6a 00 	lds	r19, 0x006A	; 0x80006a <counter+0x1>
 1d8:	36 95       	lsr	r19
 1da:	27 95       	ror	r18
 1dc:	36 95       	lsr	r19
 1de:	27 95       	ror	r18
 1e0:	41 e0       	ldi	r20, 0x01	; 1
 1e2:	23 2b       	or	r18, r19
 1e4:	09 f4       	brne	.+2      	; 0x1e8 <__stack+0x109>
 1e6:	40 e0       	ldi	r20, 0x00	; 0
 1e8:	91 e0       	ldi	r25, 0x01	; 1
 1ea:	98 27       	eor	r25, r24
 1ec:	81 e0       	ldi	r24, 0x01	; 1
 1ee:	49 13       	cpse	r20, r25
 1f0:	80 e0       	ldi	r24, 0x00	; 0
 1f2:	90 91 60 00 	lds	r25, 0x0060	; 0x800060 <__data_start>
 1f6:	89 0f       	add	r24, r25
 1f8:	80 93 60 00 	sts	0x0060, r24	; 0x800060 <__data_start>
 1fc:	20 91 69 00 	lds	r18, 0x0069	; 0x800069 <counter>
 200:	30 91 6a 00 	lds	r19, 0x006A	; 0x80006a <counter+0x1>
 204:	20 31       	cpi	r18, 0x10	; 16
 206:	31 05       	cpc	r19, r1
 208:	09 f0       	breq	.+2      	; 0x20c <__stack+0x12d>
 20a:	7c cf       	rjmp	.-264    	; 0x104 <__stack+0x25>
 20c:	8c 30       	cpi	r24, 0x0C	; 12
 20e:	78 f0       	brcs	.+30     	; 0x22e <__stack+0x14f>
 210:	82 e0       	ldi	r24, 0x02	; 2
 212:	90 e0       	ldi	r25, 0x00	; 0
 214:	90 93 6f 00 	sts	0x006F, r25	; 0x80006f <mode+0x1>
 218:	80 93 6e 00 	sts	0x006E, r24	; 0x80006e <mode>
 21c:	28 df       	rcall	.-432    	; 0x6e <oNLed>
 21e:	81 e0       	ldi	r24, 0x01	; 1
 220:	80 93 60 00 	sts	0x0060, r24	; 0x800060 <__data_start>
 224:	10 92 6a 00 	sts	0x006A, r1	; 0x80006a <counter+0x1>
 228:	10 92 69 00 	sts	0x0069, r1	; 0x800069 <counter>
 22c:	6b cf       	rjmp	.-298    	; 0x104 <__stack+0x25>
 22e:	10 92 6f 00 	sts	0x006F, r1	; 0x80006f <mode+0x1>
 232:	10 92 6e 00 	sts	0x006E, r1	; 0x80006e <mode>
 236:	f3 cf       	rjmp	.-26     	; 0x21e <__stack+0x13f>
 238:	15 df       	rcall	.-470    	; 0x64 <isLedOn>
 23a:	33 df       	rcall	.-410    	; 0xa2 <blink>
 23c:	80 91 68 00 	lds	r24, 0x0068	; 0x800068 <__data_end>
 240:	81 11       	cpse	r24, r1
 242:	60 cf       	rjmp	.-320    	; 0x104 <__stack+0x25>
 244:	18 df       	rcall	.-464    	; 0x76 <buttonPressed>
 246:	88 23       	and	r24, r24
 248:	81 f0       	breq	.+32     	; 0x26a <__stack+0x18b>
 24a:	10 92 6a 00 	sts	0x006A, r1	; 0x80006a <counter+0x1>
 24e:	10 92 69 00 	sts	0x0069, r1	; 0x800069 <counter>
 252:	c0 91 6b 00 	lds	r28, 0x006B	; 0x80006b <isMoveUp.1544>
 256:	cc 23       	and	r28, r28
 258:	31 f0       	breq	.+12     	; 0x266 <__stack+0x187>
 25a:	14 df       	rcall	.-472    	; 0x84 <turnLeft>
 25c:	81 e0       	ldi	r24, 0x01	; 1
 25e:	c8 27       	eor	r28, r24
 260:	c0 93 6b 00 	sts	0x006B, r28	; 0x80006b <isMoveUp.1544>
 264:	4f cf       	rjmp	.-354    	; 0x104 <__stack+0x25>
 266:	13 df       	rcall	.-474    	; 0x8e <turnRight>
 268:	f9 cf       	rjmp	.-14     	; 0x25c <__stack+0x17d>
 26a:	80 91 69 00 	lds	r24, 0x0069	; 0x800069 <counter>
 26e:	90 91 6a 00 	lds	r25, 0x006A	; 0x80006a <counter+0x1>
 272:	81 38       	cpi	r24, 0x81	; 129
 274:	91 05       	cpc	r25, r1
 276:	08 f4       	brcc	.+2      	; 0x27a <__stack+0x19b>
 278:	45 cf       	rjmp	.-374    	; 0x104 <__stack+0x25>
 27a:	10 92 6f 00 	sts	0x006F, r1	; 0x80006f <mode+0x1>
 27e:	10 92 6e 00 	sts	0x006E, r1	; 0x80006e <mode>
 282:	40 cf       	rjmp	.-384    	; 0x104 <__stack+0x25>

00000284 <init>:
 284:	0a df       	rcall	.-492    	; 0x9a <stop>
 286:	88 e3       	ldi	r24, 0x38	; 56
 288:	81 bb       	out	0x11, r24	; 17
 28a:	82 e0       	ldi	r24, 0x02	; 2
 28c:	89 bf       	out	0x39, r24	; 57
 28e:	85 e0       	ldi	r24, 0x05	; 5
 290:	83 bf       	out	0x33, r24	; 51
 292:	1b be       	out	0x3b, r1	; 59
 294:	08 95       	ret

00000296 <isTriggered>:
 296:	86 b3       	in	r24, 0x16	; 22
 298:	82 fb       	bst	r24, 2
 29a:	88 27       	eor	r24, r24
 29c:	80 f9       	bld	r24, 0
 29e:	08 95       	ret

000002a0 <arm>:
 2a0:	fa df       	rcall	.-12     	; 0x296 <isTriggered>
 2a2:	88 23       	and	r24, r24
 2a4:	69 f0       	breq	.+26     	; 0x2c0 <arm+0x20>
 2a6:	8c e6       	ldi	r24, 0x6C	; 108
 2a8:	97 e0       	ldi	r25, 0x07	; 7
 2aa:	90 93 6a 00 	sts	0x006A, r25	; 0x80006a <counter+0x1>
 2ae:	80 93 69 00 	sts	0x0069, r24	; 0x800069 <counter>
 2b2:	83 e0       	ldi	r24, 0x03	; 3
 2b4:	90 e0       	ldi	r25, 0x00	; 0
 2b6:	90 93 6f 00 	sts	0x006F, r25	; 0x80006f <mode+0x1>
 2ba:	80 93 6e 00 	sts	0x006E, r24	; 0x80006e <mode>
 2be:	08 95       	ret
 2c0:	10 92 6f 00 	sts	0x006F, r1	; 0x80006f <mode+0x1>
 2c4:	10 92 6e 00 	sts	0x006E, r1	; 0x80006e <mode>
 2c8:	10 92 6a 00 	sts	0x006A, r1	; 0x80006a <counter+0x1>
 2cc:	10 92 69 00 	sts	0x0069, r1	; 0x800069 <counter>
 2d0:	08 95       	ret

000002d2 <__vector_1>:
 2d2:	1f 92       	push	r1
 2d4:	0f 92       	push	r0
 2d6:	0f b6       	in	r0, 0x3f	; 63
 2d8:	0f 92       	push	r0
 2da:	11 24       	eor	r1, r1
 2dc:	2f 93       	push	r18
 2de:	3f 93       	push	r19
 2e0:	4f 93       	push	r20
 2e2:	5f 93       	push	r21
 2e4:	6f 93       	push	r22
 2e6:	7f 93       	push	r23
 2e8:	8f 93       	push	r24
 2ea:	9f 93       	push	r25
 2ec:	af 93       	push	r26
 2ee:	bf 93       	push	r27
 2f0:	ef 93       	push	r30
 2f2:	ff 93       	push	r31
 2f4:	c7 df       	rcall	.-114    	; 0x284 <init>
 2f6:	d4 df       	rcall	.-88     	; 0x2a0 <arm>
 2f8:	ff 91       	pop	r31
 2fa:	ef 91       	pop	r30
 2fc:	bf 91       	pop	r27
 2fe:	af 91       	pop	r26
 300:	9f 91       	pop	r25
 302:	8f 91       	pop	r24
 304:	7f 91       	pop	r23
 306:	6f 91       	pop	r22
 308:	5f 91       	pop	r21
 30a:	4f 91       	pop	r20
 30c:	3f 91       	pop	r19
 30e:	2f 91       	pop	r18
 310:	0f 90       	pop	r0
 312:	0f be       	out	0x3f, r0	; 63
 314:	0f 90       	pop	r0
 316:	1f 90       	pop	r1
 318:	18 95       	reti

0000031a <main>:
 31a:	b4 df       	rcall	.-152    	; 0x284 <init>
 31c:	04 b6       	in	r0, 0x34	; 52
 31e:	02 fe       	sbrs	r0, 2
 320:	29 c0       	rjmp	.+82     	; 0x374 <main+0x5a>
 322:	84 b7       	in	r24, 0x34	; 52
 324:	94 e0       	ldi	r25, 0x04	; 4
 326:	89 27       	eor	r24, r25
 328:	84 bf       	out	0x34, r24	; 52
 32a:	8c e6       	ldi	r24, 0x6C	; 108
 32c:	97 e0       	ldi	r25, 0x07	; 7
 32e:	90 93 6a 00 	sts	0x006A, r25	; 0x80006a <counter+0x1>
 332:	80 93 69 00 	sts	0x0069, r24	; 0x800069 <counter>
 336:	85 e0       	ldi	r24, 0x05	; 5
 338:	90 e0       	ldi	r25, 0x00	; 0
 33a:	90 93 6f 00 	sts	0x006F, r25	; 0x80006f <mode+0x1>
 33e:	80 93 6e 00 	sts	0x006E, r24	; 0x80006e <mode>
 342:	78 94       	sei
 344:	04 e0       	ldi	r16, 0x04	; 4
 346:	10 e0       	ldi	r17, 0x00	; 0
 348:	cc e6       	ldi	r28, 0x6C	; 108
 34a:	d7 e0       	ldi	r29, 0x07	; 7
 34c:	a4 df       	rcall	.-184    	; 0x296 <isTriggered>
 34e:	88 23       	and	r24, r24
 350:	e9 f3       	breq	.-6      	; 0x34c <main+0x32>
 352:	80 91 6e 00 	lds	r24, 0x006E	; 0x80006e <mode>
 356:	90 91 6f 00 	lds	r25, 0x006F	; 0x80006f <mode+0x1>
 35a:	89 2b       	or	r24, r25
 35c:	b9 f7       	brne	.-18     	; 0x34c <main+0x32>
 35e:	10 93 6f 00 	sts	0x006F, r17	; 0x80006f <mode+0x1>
 362:	00 93 6e 00 	sts	0x006E, r16	; 0x80006e <mode>
 366:	d0 93 6a 00 	sts	0x006A, r29	; 0x80006a <counter+0x1>
 36a:	c0 93 69 00 	sts	0x0069, r28	; 0x800069 <counter>
 36e:	7f de       	rcall	.-770    	; 0x6e <oNLed>
 370:	89 de       	rcall	.-750    	; 0x84 <turnLeft>
 372:	ec cf       	rjmp	.-40     	; 0x34c <main+0x32>
 374:	95 df       	rcall	.-214    	; 0x2a0 <arm>
 376:	e5 cf       	rjmp	.-54     	; 0x342 <main+0x28>

00000378 <_exit>:
 378:	f8 94       	cli

0000037a <__stop_program>:
 37a:	ff cf       	rjmp	.-2      	; 0x37a <__stop_program>
